target datalayout = "e-m:e-p270:32:32-p271:32:32-p272:64:64-i64:64-i128:128-f80:128-n8:16:32:64-S128"
target triple = "x86_64-pc-linux-gnu"

%struct.Gia_ParLlb_t_ = type { i32, i32, i32, i32, i32, i32, i32, i32, i32, i32, i32, i32, i32, i32, i32, i32, i32, i32, i32, i32, i32, i32, i32, i64, i32 }
%struct.Llb_Man_t_ = type { ptr, ptr, ptr, ptr, ptr, ptr, ptr, ptr, ptr, ptr, ptr, ptr, ptr, ptr, ptr, ptr, ptr }
%struct.Vec_Int_t_ = type { i32, i32, ptr }
%struct.timespec = type { i64, i64 }

@.str.9 = private unnamed_addr constant [27 x i8] c"Original matrix:          \00", align 1
@.str.10 = private unnamed_addr constant [27 x i8] c"Matrix after clustering:  \00", align 1
@.str.11 = private unnamed_addr constant [27 x i8] c"Matrix after scheduling:  \00", align 1
@.str.12 = private unnamed_addr constant [5 x i8] c"Time\00", align 1
@.str.15 = private unnamed_addr constant [5 x i8] c"%s =\00", align 1
@.str.16 = private unnamed_addr constant [11 x i8] c"%9.2f sec\0A\00", align 1

; Function Attrs: inlinehint nounwind uwtable
define internal void @Vec_IntFreeP(ptr noundef %0) #2 {
  %2 = alloca ptr, align 8
  store ptr %0, ptr %2, align 8, !tbaa !74
  %3 = load ptr, ptr %2, align 8, !tbaa !74
  %4 = load ptr, ptr %3, align 8, !tbaa !62
  %5 = icmp eq ptr %4, null
  br i1 %5, label %6, label %7

6:                                                ; preds = %1
  br label %32

7:                                                ; preds = %1
  %8 = load ptr, ptr %2, align 8, !tbaa !74
  %9 = load ptr, ptr %8, align 8, !tbaa !62
  %10 = getelementptr inbounds nuw %struct.Vec_Int_t_, ptr %9, i32 0, i32 2
  %11 = load ptr, ptr %10, align 8, !tbaa !76
  %12 = icmp ne ptr %11, null
  br i1 %12, label %13, label %21

13:                                               ; preds = %7
  %14 = load ptr, ptr %2, align 8, !tbaa !74
  %15 = load ptr, ptr %14, align 8, !tbaa !62
  %16 = getelementptr inbounds nuw %struct.Vec_Int_t_, ptr %15, i32 0, i32 2
  %17 = load ptr, ptr %16, align 8, !tbaa !76
  call void @free(ptr noundef %17) #8
  %18 = load ptr, ptr %2, align 8, !tbaa !74
  %19 = load ptr, ptr %18, align 8, !tbaa !62
  %20 = getelementptr inbounds nuw %struct.Vec_Int_t_, ptr %19, i32 0, i32 2
  store ptr null, ptr %20, align 8, !tbaa !76
  br label %22

21:                                               ; preds = %7
  br label %22

22:                                               ; preds = %21, %13
  %23 = load ptr, ptr %2, align 8, !tbaa !74
  %24 = load ptr, ptr %23, align 8, !tbaa !62
  %25 = icmp ne ptr %24, null
  br i1 %25, label %26, label %30

26:                                               ; preds = %22
  %27 = load ptr, ptr %2, align 8, !tbaa !74
  %28 = load ptr, ptr %27, align 8, !tbaa !62
  call void @free(ptr noundef %28) #8
  %29 = load ptr, ptr %2, align 8, !tbaa !74
  store ptr null, ptr %29, align 8, !tbaa !62
  br label %31

30:                                               ; preds = %22
  br label %31

31:                                               ; preds = %30, %26
  br label %32

32:                                               ; preds = %31, %6
  ret void
}

; Function Attrs: inlinehint nounwind uwtable
define internal void @Abc_PrintTime(i32 noundef %0, ptr noundef %1, i64 noundef %2) #2 {
  %4 = alloca i32, align 4
  %5 = alloca ptr, align 8
  %6 = alloca i64, align 8
  store i32 %0, ptr %4, align 4, !tbaa !45
  store ptr %1, ptr %5, align 8, !tbaa !46
  store i64 %2, ptr %6, align 8, !tbaa !70
  %7 = load ptr, ptr %5, align 8, !tbaa !46
  call void (i32, ptr, ...) @Abc_Print(i32 noundef 1, ptr noundef @.str.15, ptr noundef %7)
  %8 = load i64, ptr %6, align 8, !tbaa !70
  %9 = sitofp i64 %8 to double
  %10 = fmul double 1.000000e+00, %9
  %11 = fdiv double %10, 1.000000e+06
  call void (i32, ptr, ...) @Abc_Print(i32 noundef 1, ptr noundef @.str.16, double noundef %11)
  ret void
}

; Function Attrs: inlinehint nounwind uwtable
define internal i64 @Abc_Clock() #2 {
  %1 = alloca i64, align 8
  %2 = alloca %struct.timespec, align 8
  %3 = alloca i32, align 4
  %4 = alloca i64, align 8
  call void @llvm.lifetime.start.p0(i64 16, ptr %2) #8
  %5 = call i32 @clock_gettime(i32 noundef 1, ptr noundef %2) #8
  %6 = icmp slt i32 %5, 0
  br i1 %6, label %7, label %8

7:                                                ; preds = %0
  store i64 -1, ptr %1, align 8
  store i32 1, ptr %3, align 4
  br label %19

8:                                                ; preds = %0
  call void @llvm.lifetime.start.p0(i64 8, ptr %4) #8
  %9 = getelementptr inbounds nuw %struct.timespec, ptr %2, i32 0, i32 0
  %10 = load i64, ptr %9, align 8, !tbaa !94
  %11 = mul nsw i64 %10, 1000000
  store i64 %11, ptr %4, align 8, !tbaa !70
  %12 = getelementptr inbounds nuw %struct.timespec, ptr %2, i32 0, i32 1
  %13 = load i64, ptr %12, align 8, !tbaa !96
  %14 = mul nsw i64 %13, 1000000
  %15 = sdiv i64 %14, 1000000000
  %16 = load i64, ptr %4, align 8, !tbaa !70
  %17 = add nsw i64 %16, %15
  store i64 %17, ptr %4, align 8, !tbaa !70
  %18 = load i64, ptr %4, align 8, !tbaa !70
  store i64 %18, ptr %1, align 8
  store i32 1, ptr %3, align 4
  call void @llvm.lifetime.end.p0(i64 8, ptr %4) #8
  br label %19

19:                                               ; preds = %8, %7
  call void @llvm.lifetime.end.p0(i64 16, ptr %2) #8
  %20 = load i64, ptr %1, align 8
  ret i64 %20
}

; Function Attrs: nounwind uwtable
define i32 @Llb_ManModelCheckAig(ptr noundef %0, ptr noundef %1, ptr noundef %2, ptr noundef %3) #0 {
  %5 = alloca ptr, align 8
  %6 = alloca ptr, align 8
  %7 = alloca ptr, align 8
  %8 = alloca ptr, align 8
  %9 = alloca ptr, align 8
  %10 = alloca ptr, align 8
  %11 = alloca i32, align 4
  %12 = alloca i64, align 8
  store ptr %0, ptr %5, align 8, !tbaa !50
  store ptr %1, ptr %6, align 8, !tbaa !3
  store ptr %2, ptr %7, align 8, !tbaa !62
  store ptr %3, ptr %8, align 8, !tbaa !68
  call void @llvm.lifetime.start.p0(i64 8, ptr %9) #8
  store ptr null, ptr %9, align 8, !tbaa !34
  call void @llvm.lifetime.start.p0(i64 8, ptr %10) #8
  call void @llvm.lifetime.start.p0(i64 4, ptr %11) #8
  store i32 -1, ptr %11, align 4, !tbaa !45
  call void @llvm.lifetime.start.p0(i64 8, ptr %12) #8
  %13 = call i64 @Abc_Clock()
  store i64 %13, ptr %12, align 8, !tbaa !70
  %14 = load ptr, ptr %6, align 8, !tbaa !3
  %15 = getelementptr inbounds nuw %struct.Gia_ParLlb_t_, ptr %14, i32 0, i32 11
  %16 = load i32, ptr %15, align 4, !tbaa !22
  %17 = icmp ne i32 %16, 0
  br i1 %17, label %18, label %21

18:                                               ; preds = %4
  %19 = load ptr, ptr %5, align 8, !tbaa !50
  %20 = call ptr @Llb_ManDeriveConstraints(ptr noundef %19)
  store ptr %20, ptr %7, align 8, !tbaa !62
  br label %21

21:                                               ; preds = %18, %4
  %22 = load ptr, ptr %7, align 8, !tbaa !62
  %23 = icmp eq ptr %22, null
  br i1 %23, label %24, label %27

24:                                               ; preds = %21
  %25 = load ptr, ptr %5, align 8, !tbaa !50
  %26 = call ptr @Aig_ManDupSimple(ptr noundef %25)
  store ptr %26, ptr %10, align 8, !tbaa !50
  br label %39

27:                                               ; preds = %21
  %28 = load ptr, ptr %6, align 8, !tbaa !3
  %29 = getelementptr inbounds nuw %struct.Gia_ParLlb_t_, ptr %28, i32 0, i32 16
  %30 = load i32, ptr %29, align 8, !tbaa !27
  %31 = icmp ne i32 %30, 0
  br i1 %31, label %32, label %35

32:                                               ; preds = %27
  %33 = load ptr, ptr %5, align 8, !tbaa !50
  %34 = load ptr, ptr %7, align 8, !tbaa !62
  call void @Llb_ManPrintEntries(ptr noundef %33, ptr noundef %34)
  br label %35

35:                                               ; preds = %32, %27
  %36 = load ptr, ptr %5, align 8, !tbaa !50
  %37 = load ptr, ptr %7, align 8, !tbaa !62
  %38 = call ptr @Aig_ManDupSimpleWithHints(ptr noundef %36, ptr noundef %37)
  store ptr %38, ptr %10, align 8, !tbaa !50
  br label %39

39:                                               ; preds = %35, %24
  %40 = load ptr, ptr %6, align 8, !tbaa !3
  %41 = getelementptr inbounds nuw %struct.Gia_ParLlb_t_, ptr %40, i32 0, i32 5
  %42 = load i32, ptr %41, align 4, !tbaa !16
  %43 = icmp ne i32 %42, 0
  br i1 %43, label %44, label %45

44:                                               ; preds = %39
  br label %126

45:                                               ; preds = %39
  %46 = load ptr, ptr %5, align 8, !tbaa !50
  %47 = load ptr, ptr %10, align 8, !tbaa !50
  %48 = load ptr, ptr %6, align 8, !tbaa !3
  %49 = call ptr @Llb_ManStart(ptr noundef %46, ptr noundef %47, ptr noundef %48)
  store ptr %49, ptr %9, align 8, !tbaa !34
  %50 = load ptr, ptr %6, align 8, !tbaa !3
  %51 = getelementptr inbounds nuw %struct.Gia_ParLlb_t_, ptr %50, i32 0, i32 16
  %52 = load i32, ptr %51, align 8, !tbaa !27
  %53 = icmp ne i32 %52, 0
  br i1 %53, label %54, label %69

54:                                               ; preds = %45
  %55 = load ptr, ptr %9, align 8, !tbaa !34
  call void @Llb_ManPrintAig(ptr noundef %55)
  %56 = call i32 (ptr, ...) @printf(ptr noundef @.str.9)
  %57 = load ptr, ptr %9, align 8, !tbaa !34
  %58 = getelementptr inbounds nuw %struct.Llb_Man_t_, ptr %57, i32 0, i32 9
  %59 = load ptr, ptr %58, align 8, !tbaa !71
  call void @Llb_MtrPrintMatrixStats(ptr noundef %59)
  %60 = load ptr, ptr %6, align 8, !tbaa !3
  %61 = getelementptr inbounds nuw %struct.Gia_ParLlb_t_, ptr %60, i32 0, i32 17
  %62 = load i32, ptr %61, align 4, !tbaa !28
  %63 = icmp ne i32 %62, 0
  br i1 %63, label %64, label %68

64:                                               ; preds = %54
  %65 = load ptr, ptr %9, align 8, !tbaa !34
  %66 = getelementptr inbounds nuw %struct.Llb_Man_t_, ptr %65, i32 0, i32 9
  %67 = load ptr, ptr %66, align 8, !tbaa !71
  call void @Llb_MtrPrint(ptr noundef %67, i32 noundef 1)
  br label %68

68:                                               ; preds = %64, %54
  br label %69

69:                                               ; preds = %68, %45
  %70 = load ptr, ptr %6, align 8, !tbaa !3
  %71 = getelementptr inbounds nuw %struct.Gia_ParLlb_t_, ptr %70, i32 0, i32 13
  %72 = load i32, ptr %71, align 4, !tbaa !24
  %73 = icmp ne i32 %72, 0
  br i1 %73, label %74, label %97

74:                                               ; preds = %69
  %75 = load ptr, ptr %9, align 8, !tbaa !34
  %76 = getelementptr inbounds nuw %struct.Llb_Man_t_, ptr %75, i32 0, i32 9
  %77 = load ptr, ptr %76, align 8, !tbaa !71
  call void @Llb_ManCluster(ptr noundef %77)
  %78 = load ptr, ptr %6, align 8, !tbaa !3
  %79 = getelementptr inbounds nuw %struct.Gia_ParLlb_t_, ptr %78, i32 0, i32 16
  %80 = load i32, ptr %79, align 8, !tbaa !27
  %81 = icmp ne i32 %80, 0
  br i1 %81, label %82, label %96

82:                                               ; preds = %74
  %83 = call i32 (ptr, ...) @printf(ptr noundef @.str.10)
  %84 = load ptr, ptr %9, align 8, !tbaa !34
  %85 = getelementptr inbounds nuw %struct.Llb_Man_t_, ptr %84, i32 0, i32 9
  %86 = load ptr, ptr %85, align 8, !tbaa !71
  call void @Llb_MtrPrintMatrixStats(ptr noundef %86)
  %87 = load ptr, ptr %6, align 8, !tbaa !3
  %88 = getelementptr inbounds nuw %struct.Gia_ParLlb_t_, ptr %87, i32 0, i32 17
  %89 = load i32, ptr %88, align 4, !tbaa !28
  %90 = icmp ne i32 %89, 0
  br i1 %90, label %91, label %95

91:                                               ; preds = %82
  %92 = load ptr, ptr %9, align 8, !tbaa !34
  %93 = getelementptr inbounds nuw %struct.Llb_Man_t_, ptr %92, i32 0, i32 9
  %94 = load ptr, ptr %93, align 8, !tbaa !71
  call void @Llb_MtrPrint(ptr noundef %94, i32 noundef 1)
  br label %95

95:                                               ; preds = %91, %82
  br label %96

96:                                               ; preds = %95, %74
  br label %97

97:                                               ; preds = %96, %69
  %98 = load ptr, ptr %6, align 8, !tbaa !3
  %99 = getelementptr inbounds nuw %struct.Gia_ParLlb_t_, ptr %98, i32 0, i32 14
  %100 = load i32, ptr %99, align 8, !tbaa !25
  %101 = icmp ne i32 %100, 0
  br i1 %101, label %102, label %125

102:                                              ; preds = %97
  %103 = load ptr, ptr %9, align 8, !tbaa !34
  %104 = getelementptr inbounds nuw %struct.Llb_Man_t_, ptr %103, i32 0, i32 9
  %105 = load ptr, ptr %104, align 8, !tbaa !71
  call void @Llb_MtrSchedule(ptr noundef %105)
  %106 = load ptr, ptr %6, align 8, !tbaa !3
  %107 = getelementptr inbounds nuw %struct.Gia_ParLlb_t_, ptr %106, i32 0, i32 16
  %108 = load i32, ptr %107, align 8, !tbaa !27
  %109 = icmp ne i32 %108, 0
  br i1 %109, label %110, label %124

110:                                              ; preds = %102
  %111 = call i32 (ptr, ...) @printf(ptr noundef @.str.11)
  %112 = load ptr, ptr %9, align 8, !tbaa !34
  %113 = getelementptr inbounds nuw %struct.Llb_Man_t_, ptr %112, i32 0, i32 9
  %114 = load ptr, ptr %113, align 8, !tbaa !71
  call void @Llb_MtrPrintMatrixStats(ptr noundef %114)
  %115 = load ptr, ptr %6, align 8, !tbaa !3
  %116 = getelementptr inbounds nuw %struct.Gia_ParLlb_t_, ptr %115, i32 0, i32 17
  %117 = load i32, ptr %116, align 4, !tbaa !28
  %118 = icmp ne i32 %117, 0
  br i1 %118, label %119, label %123

119:                                              ; preds = %110
  %120 = load ptr, ptr %9, align 8, !tbaa !34
  %121 = getelementptr inbounds nuw %struct.Llb_Man_t_, ptr %120, i32 0, i32 9
  %122 = load ptr, ptr %121, align 8, !tbaa !71
  call void @Llb_MtrPrint(ptr noundef %122, i32 noundef 1)
  br label %123

123:                                              ; preds = %119, %110
  br label %124

124:                                              ; preds = %123, %102
  br label %125

125:                                              ; preds = %124, %97
  br label %126

126:                                              ; preds = %125, %44
  %127 = load ptr, ptr %9, align 8, !tbaa !34
  %128 = getelementptr inbounds nuw %struct.Llb_Man_t_, ptr %127, i32 0, i32 0
  %129 = load ptr, ptr %128, align 8, !tbaa !72
  %130 = getelementptr inbounds nuw %struct.Gia_ParLlb_t_, ptr %129, i32 0, i32 19
  %131 = load i32, ptr %130, align 4, !tbaa !73
  %132 = icmp ne i32 %131, 0
  br i1 %132, label %138, label %133

133:                                              ; preds = %126
  %134 = load ptr, ptr %9, align 8, !tbaa !34
  %135 = load ptr, ptr %7, align 8, !tbaa !62
  %136 = load ptr, ptr %8, align 8, !tbaa !68
  %137 = call i32 @Llb_ManReachability(ptr noundef %134, ptr noundef %135, ptr noundef %136)
  store i32 %137, ptr %11, align 4, !tbaa !45
  br label %138

138:                                              ; preds = %133, %126
  %139 = load ptr, ptr %9, align 8, !tbaa !34
  call void @Llb_ManStop(ptr noundef %139)
  %140 = call i64 @Abc_Clock()
  %141 = load i64, ptr %12, align 8, !tbaa !70
  %142 = sub nsw i64 %140, %141
  call void @Abc_PrintTime(i32 noundef 1, ptr noundef @.str.12, i64 noundef %142)
  %143 = load ptr, ptr %6, align 8, !tbaa !3
  %144 = getelementptr inbounds nuw %struct.Gia_ParLlb_t_, ptr %143, i32 0, i32 11
  %145 = load i32, ptr %144, align 4, !tbaa !22
  %146 = icmp ne i32 %145, 0
  br i1 %146, label %147, label %148

147:                                              ; preds = %138
  call void @Vec_IntFreeP(ptr noundef %7)
  br label %148

148:                                              ; preds = %147, %138
  %149 = load i32, ptr %11, align 4, !tbaa !45
  call void @llvm.lifetime.end.p0(i64 8, ptr %12) #8
  call void @llvm.lifetime.end.p0(i64 4, ptr %11) #8
  call void @llvm.lifetime.end.p0(i64 8, ptr %10) #8
  call void @llvm.lifetime.end.p0(i64 8, ptr %9) #8
  ret i32 %149
}