; Function Attrs: nounwind uwtable
define i32 @Llb_ManModelCheckAig(ptr noundef %0, ptr noundef %1, ptr noundef %2, ptr noundef %3) local_unnamed_addr #2 {
  %5 = alloca %struct.timespec, align 8
  %6 = alloca %struct.timespec, align 8
  call void @llvm.lifetime.start.p0(i64 16, ptr nonnull %6) #12
  %7 = call i32 @clock_gettime(i32 noundef 1, ptr noundef nonnull %6) #12
  %8 = icmp slt i32 %7, 0
  br i1 %8, label %Abc_Clock.exit, label %9

9:                                                ; preds = %4
  %10 = load i64, ptr %6, align 8, !tbaa !54
  %.neg54 = mul i64 %10, -1000000
  %11 = getelementptr inbounds nuw i8, ptr %6, i64 8
  %12 = load i64, ptr %11, align 8, !tbaa !56
  %.neg = sdiv i64 %12, -1000
  %.neg55 = add i64 %.neg, %.neg54
  br label %Abc_Clock.exit

Abc_Clock.exit:                                   ; preds = %4, %9
  %.0.i.neg = phi i64 [ %.neg55, %9 ], [ 1, %4 ]
  call void @llvm.lifetime.end.p0(i64 16, ptr nonnull %6) #12
  %13 = getelementptr inbounds nuw i8, ptr %1, i64 44
  %14 = load i32, ptr %13, align 4, !tbaa !57
  %.not = icmp eq i32 %14, 0
  br i1 %.not, label %17, label %15

15:                                               ; preds = %Abc_Clock.exit
  %16 = call ptr @Llb_ManDeriveConstraints(ptr noundef %0) #12
  br label %17

17:                                               ; preds = %15, %Abc_Clock.exit
  %.0 = phi ptr [ %2, %Abc_Clock.exit ], [ %16, %15 ]
  %18 = icmp eq ptr %.0, null
  br i1 %18, label %19, label %21

19:                                               ; preds = %17
  %20 = call ptr @Aig_ManDupSimple(ptr noundef %0) #12
  br label %27

21:                                               ; preds = %17
  %22 = getelementptr inbounds nuw i8, ptr %1, i64 64
  %23 = load i32, ptr %22, align 8, !tbaa !58
  %.not36 = icmp eq i32 %23, 0
  br i1 %.not36, label %25, label %24

24:                                               ; preds = %21
  call void @Llb_ManPrintEntries(ptr noundef %0, ptr noundef nonnull %.0) #12
  br label %25

25:                                               ; preds = %24, %21
  %26 = call ptr @Aig_ManDupSimpleWithHints(ptr noundef %0, ptr noundef nonnull %.0) #12
  br label %27

27:                                               ; preds = %25, %19
  %.034 = phi ptr [ %20, %19 ], [ %26, %25 ]
  %28 = getelementptr inbounds nuw i8, ptr %1, i64 20
  %29 = load i32, ptr %28, align 4, !tbaa !13
  %.not37 = icmp eq i32 %29, 0
  call void @llvm.assume(i1 %.not37)
  %30 = call ptr @Llb_ManStart(ptr noundef %0, ptr noundef %.034, ptr noundef nonnull %1) #12
  %31 = getelementptr inbounds nuw i8, ptr %1, i64 64
  %32 = load i32, ptr %31, align 8, !tbaa !58
  %.not38 = icmp eq i32 %32, 0
  br i1 %.not38, label %41, label %33

33:                                               ; preds = %27
  call void @Llb_ManPrintAig(ptr noundef %30)
  %34 = call i32 (ptr, ...) @printf(ptr noundef nonnull dereferenceable(1) @.str.9)
  %35 = getelementptr inbounds nuw i8, ptr %30, i64 72
  %36 = load ptr, ptr %35, align 8, !tbaa !59
  call void @Llb_MtrPrintMatrixStats(ptr noundef %36) #12
  %37 = getelementptr inbounds nuw i8, ptr %1, i64 68
  %38 = load i32, ptr %37, align 4, !tbaa !60
  %.not39 = icmp eq i32 %38, 0
  br i1 %.not39, label %41, label %39

39:                                               ; preds = %33
  %40 = load ptr, ptr %35, align 8, !tbaa !59
  call void @Llb_MtrPrint(ptr noundef %40, i32 noundef 1) #12
  br label %41

41:                                               ; preds = %33, %39, %27
  %42 = getelementptr inbounds nuw i8, ptr %1, i64 52
  %43 = load i32, ptr %42, align 4, !tbaa !61
  %.not40 = icmp eq i32 %43, 0
  br i1 %.not40, label %55, label %44

44:                                               ; preds = %41
  %45 = getelementptr inbounds nuw i8, ptr %30, i64 72
  %46 = load ptr, ptr %45, align 8, !tbaa !59
  call void @Llb_ManCluster(ptr noundef %46) #12
  %47 = load i32, ptr %31, align 8, !tbaa !58
  %.not41 = icmp eq i32 %47, 0
  br i1 %.not41, label %55, label %48

48:                                               ; preds = %44
  %49 = call i32 (ptr, ...) @printf(ptr noundef nonnull dereferenceable(1) @.str.10)
  %50 = load ptr, ptr %45, align 8, !tbaa !59
  call void @Llb_MtrPrintMatrixStats(ptr noundef %50) #12
  %51 = getelementptr inbounds nuw i8, ptr %1, i64 68
  %52 = load i32, ptr %51, align 4, !tbaa !60
  %.not42 = icmp eq i32 %52, 0
  br i1 %.not42, label %55, label %53

53:                                               ; preds = %48
  %54 = load ptr, ptr %45, align 8, !tbaa !59
  call void @Llb_MtrPrint(ptr noundef %54, i32 noundef 1) #12
  br label %55

55:                                               ; preds = %44, %53, %48, %41
  %56 = getelementptr inbounds nuw i8, ptr %1, i64 56
  %57 = load i32, ptr %56, align 8, !tbaa !62
  %.not43 = icmp eq i32 %57, 0
  br i1 %.not43, label %69, label %58

58:                                               ; preds = %55
  %59 = getelementptr inbounds nuw i8, ptr %30, i64 72
  %60 = load ptr, ptr %59, align 8, !tbaa !59
  call void @Llb_MtrSchedule(ptr noundef %60) #12
  %61 = load i32, ptr %31, align 8, !tbaa !58
  %.not44 = icmp eq i32 %61, 0
  br i1 %.not44, label %69, label %62

62:                                               ; preds = %58
  %63 = call i32 (ptr, ...) @printf(ptr noundef nonnull dereferenceable(1) @.str.11)
  %64 = load ptr, ptr %59, align 8, !tbaa !59
  call void @Llb_MtrPrintMatrixStats(ptr noundef %64) #12
  %65 = getelementptr inbounds nuw i8, ptr %1, i64 68
  %66 = load i32, ptr %65, align 4, !tbaa !60
  %.not45 = icmp eq i32 %66, 0
  br i1 %.not45, label %69, label %67

67:                                               ; preds = %62
  %68 = load ptr, ptr %59, align 8, !tbaa !59
  call void @Llb_MtrPrint(ptr noundef %68, i32 noundef 1) #12
  br label %69

69:                                               ; preds = %55, %62, %67, %58
  %70 = load ptr, ptr %30, align 8, !tbaa !63
  %71 = getelementptr inbounds nuw i8, ptr %70, i64 76
  %72 = load i32, ptr %71, align 4, !tbaa !64
  %.not46 = icmp eq i32 %72, 0
  br i1 %.not46, label %73, label %75

73:                                               ; preds = %69
  %74 = call i32 @Llb_ManReachability(ptr noundef nonnull %30, ptr noundef %.0, ptr noundef %3) #12
  br label %75

75:                                               ; preds = %73, %69
  %.033 = phi i32 [ -1, %69 ], [ %74, %73 ]
  call void @Llb_ManStop(ptr noundef nonnull %30) #12
  call void @llvm.lifetime.start.p0(i64 16, ptr nonnull %5) #12
  %76 = call i32 @clock_gettime(i32 noundef 1, ptr noundef nonnull %5) #12
  %77 = icmp slt i32 %76, 0
  br i1 %77, label %Abc_Clock.exit49, label %78

78:                                               ; preds = %75
  %79 = load i64, ptr %5, align 8, !tbaa !54
  %80 = mul nsw i64 %79, 1000000
  %81 = getelementptr inbounds nuw i8, ptr %5, i64 8
  %82 = load i64, ptr %81, align 8, !tbaa !56
  %83 = sdiv i64 %82, 1000
  %84 = add nsw i64 %83, %80
  br label %Abc_Clock.exit49

Abc_Clock.exit49:                                 ; preds = %75, %78
  %.0.i48 = phi i64 [ %84, %78 ], [ -1, %75 ]
  call void @llvm.lifetime.end.p0(i64 16, ptr nonnull %5) #12
  %85 = add i64 %.0.i48, %.0.i.neg
  call void (i32, ptr, ...) @Abc_Print(i32 poison, ptr noundef nonnull @.str.15, ptr noundef nonnull @.str.12)
  %86 = sitofp i64 %85 to double
  %87 = fdiv double %86, 1.000000e+06
  call void (i32, ptr, ...) @Abc_Print(i32 poison, ptr noundef nonnull @.str.16, double noundef %87)
  %88 = load i32, ptr %13, align 4, !tbaa !57
  %.not47 = icmp eq i32 %88, 0
  %brmerge = or i1 %18, %.not47
  br i1 %brmerge, label %Vec_IntFreeP.exit, label %89

89:                                               ; preds = %Abc_Clock.exit49
  %90 = getelementptr inbounds nuw i8, ptr %.0, i64 8
  %91 = load ptr, ptr %90, align 8, !tbaa !65
  %.not.i = icmp eq ptr %91, null
  br i1 %.not.i, label %92, label %.thread.i

.thread.i:                                        ; preds = %89
  call void @free(ptr noundef nonnull %91) #12
  br label %92

92:                                               ; preds = %.thread.i, %89
  call void @free(ptr noundef nonnull %.0) #12
  br label %Vec_IntFreeP.exit

Vec_IntFreeP.exit:                                ; preds = %Abc_Clock.exit49, %92
  ret i32 %.033
}